target datalayout = "e-m:e-p270:32:32-p271:32:32-p272:64:64-i64:64-i128:128-f80:128-n8:16:32:64-S128"
target triple = "x86_64-pc-linux-gnu"

%struct.JSValue = type { %union.JSValueUnion, i64 }
%union.JSValueUnion = type { double }
%struct.JSRefCountHeader = type { i32 }
%struct.list_head = type { ptr, ptr }
%struct.JSWorkerMessagePipe = type { i32, %union.pthread_mutex_t, %struct.list_head, i32, i32 }
%union.pthread_mutex_t = type { %struct.__pthread_mutex_s }
%struct.__pthread_mutex_s = type { i32, i32, i32, i32, i32, i16, i16, %struct.__pthread_internal_list }
%struct.__pthread_internal_list = type { ptr, ptr }
%struct.JSWorkerData = type { ptr, ptr, ptr }

@js_worker_class_id = internal global i32 0, align 4
@__const.js_worker_ctor_internal.obj = private unnamed_addr constant { { i32, [4 x i8] }, i64 } { { i32, [4 x i8] } { i32 0, [4 x i8] undef }, i64 3 }, align 8
@.str.112 = private unnamed_addr constant [10 x i8] c"prototype\00", align 1

; Function Attrs: nounwind uwtable
define internal i32 @atomic_add_int(ptr noundef %0, i32 noundef %1) #0 {
  %3 = alloca ptr, align 8
  %4 = alloca i32, align 4
  %5 = alloca i32, align 4
  %6 = alloca i32, align 4
  store ptr %0, ptr %3, align 8
  store i32 %1, ptr %4, align 4
  %7 = load ptr, ptr %3, align 8
  %8 = load i32, ptr %4, align 4
  store i32 %8, ptr %5, align 4
  %9 = load i32, ptr %5, align 4
  %10 = atomicrmw add ptr %7, i32 %9 seq_cst, align 4
  store i32 %10, ptr %6, align 4
  %11 = load i32, ptr %6, align 4
  %12 = load i32, ptr %4, align 4
  %13 = add i32 %11, %12
  ret i32 %13
}

; Function Attrs: nounwind uwtable
define internal ptr @js_dup_message_pipe(ptr noundef %0) #0 {
  %2 = alloca ptr, align 8
  store ptr %0, ptr %2, align 8
  %3 = load ptr, ptr %2, align 8
  %4 = getelementptr inbounds %struct.JSWorkerMessagePipe, ptr %3, i32 0, i32 0
  %5 = call i32 @atomic_add_int(ptr noundef %4, i32 noundef 1)
  %6 = load ptr, ptr %2, align 8
  ret ptr %6
}

; Function Attrs: nounwind uwtable
define internal void @JS_FreeValue(ptr noundef %0, i64 %1, i64 %2) #0 {
  %4 = alloca %struct.JSValue, align 8
  %5 = alloca ptr, align 8
  %6 = alloca ptr, align 8
  %7 = getelementptr inbounds { i64, i64 }, ptr %4, i32 0, i32 0
  store i64 %1, ptr %7, align 8
  %8 = getelementptr inbounds { i64, i64 }, ptr %4, i32 0, i32 1
  store i64 %2, ptr %8, align 8
  store ptr %0, ptr %5, align 8
  %9 = getelementptr inbounds %struct.JSValue, ptr %4, i32 0, i32 1
  %10 = load i64, ptr %9, align 8
  %11 = trunc i64 %10 to i32
  %12 = icmp uge i32 %11, -11
  br i1 %12, label %13, label %28

13:                                               ; preds = %3
  %14 = getelementptr inbounds %struct.JSValue, ptr %4, i32 0, i32 0
  %15 = load ptr, ptr %14, align 8
  store ptr %15, ptr %6, align 8
  %16 = load ptr, ptr %6, align 8
  %17 = getelementptr inbounds %struct.JSRefCountHeader, ptr %16, i32 0, i32 0
  %18 = load i32, ptr %17, align 4
  %19 = add i32 %18, -1
  store i32 %19, ptr %17, align 4
  %20 = icmp sle i32 %19, 0
  br i1 %20, label %21, label %27

21:                                               ; preds = %13
  %22 = load ptr, ptr %5, align 8
  %23 = getelementptr inbounds { i64, i64 }, ptr %4, i32 0, i32 0
  %24 = load i64, ptr %23, align 8
  %25 = getelementptr inbounds { i64, i64 }, ptr %4, i32 0, i32 1
  %26 = load i64, ptr %25, align 8
  call void @__JS_FreeValue(ptr noundef %22, i64 %24, i64 %26)
  br label %27

27:                                               ; preds = %21, %13
  br label %28

28:                                               ; preds = %27, %3
  ret void
}

; Function Attrs: nounwind uwtable
define internal i32 @JS_IsException(i64 %0, i64 %1) #0 {
  %3 = alloca %struct.JSValue, align 8
  %4 = getelementptr inbounds { i64, i64 }, ptr %3, i32 0, i32 0
  store i64 %0, ptr %4, align 8
  %5 = getelementptr inbounds { i64, i64 }, ptr %3, i32 0, i32 1
  store i64 %1, ptr %5, align 8
  %6 = getelementptr inbounds %struct.JSValue, ptr %3, i32 0, i32 1
  %7 = load i64, ptr %6, align 8
  %8 = trunc i64 %7 to i32
  %9 = icmp eq i32 %8, 6
  %10 = xor i1 %9, true
  %11 = xor i1 %10, true
  %12 = zext i1 %11 to i32
  %13 = sext i32 %12 to i64
  %14 = trunc i64 %13 to i32
  ret i32 %14
}

; Function Attrs: nounwind uwtable
define internal i32 @JS_IsUndefined(i64 %0, i64 %1) #0 {
  %3 = alloca %struct.JSValue, align 8
  %4 = getelementptr inbounds { i64, i64 }, ptr %3, i32 0, i32 0
  store i64 %0, ptr %4, align 8
  %5 = getelementptr inbounds { i64, i64 }, ptr %3, i32 0, i32 1
  store i64 %1, ptr %5, align 8
  %6 = getelementptr inbounds %struct.JSValue, ptr %3, i32 0, i32 1
  %7 = load i64, ptr %6, align 8
  %8 = trunc i64 %7 to i32
  %9 = icmp eq i32 %8, 3
  %10 = zext i1 %9 to i32
  ret i32 %10
}

; Function Attrs: nounwind uwtable
define internal { i64, i64 } @js_worker_ctor_internal(ptr noundef %0, i64 %1, i64 %2, ptr noundef %3, ptr noundef %4) #0 {
  %6 = alloca %struct.JSValue, align 8
  %7 = alloca %struct.JSValue, align 8
  %8 = alloca ptr, align 8
  %9 = alloca ptr, align 8
  %10 = alloca ptr, align 8
  %11 = alloca %struct.JSValue, align 8
  %12 = alloca %struct.JSValue, align 8
  %13 = alloca ptr, align 8
  %14 = alloca %struct.JSValue, align 8
  %15 = alloca %struct.JSValue, align 8
  %16 = alloca %struct.JSValue, align 8
  %17 = getelementptr inbounds { i64, i64 }, ptr %7, i32 0, i32 0
  store i64 %1, ptr %17, align 8
  %18 = getelementptr inbounds { i64, i64 }, ptr %7, i32 0, i32 1
  store i64 %2, ptr %18, align 8
  store ptr %0, ptr %8, align 8
  store ptr %3, ptr %9, align 8
  store ptr %4, ptr %10, align 8
  call void @llvm.memcpy.p0.p0.i64(ptr align 8 %11, ptr align 8 @__const.js_worker_ctor_internal.obj, i64 16, i1 false)
  %19 = getelementptr inbounds { i64, i64 }, ptr %7, i32 0, i32 0
  %20 = load i64, ptr %19, align 8
  %21 = getelementptr inbounds { i64, i64 }, ptr %7, i32 0, i32 1
  %22 = load i64, ptr %21, align 8
  %23 = call i32 @JS_IsUndefined(i64 %20, i64 %22)
  %24 = icmp ne i32 %23, 0
  br i1 %24, label %25, label %33

25:                                               ; preds = %5
  %26 = load ptr, ptr %8, align 8
  %27 = load i32, ptr @js_worker_class_id, align 4
  %28 = call { i64, i64 } @JS_GetClassProto(ptr noundef %26, i32 noundef %27)
  %29 = getelementptr inbounds { i64, i64 }, ptr %14, i32 0, i32 0
  %30 = extractvalue { i64, i64 } %28, 0
  store i64 %30, ptr %29, align 8
  %31 = getelementptr inbounds { i64, i64 }, ptr %14, i32 0, i32 1
  %32 = extractvalue { i64, i64 } %28, 1
  store i64 %32, ptr %31, align 8
  call void @llvm.memcpy.p0.p0.i64(ptr align 8 %12, ptr align 8 %14, i64 16, i1 false)
  br label %52

33:                                               ; preds = %5
  %34 = load ptr, ptr %8, align 8
  %35 = getelementptr inbounds { i64, i64 }, ptr %7, i32 0, i32 0
  %36 = load i64, ptr %35, align 8
  %37 = getelementptr inbounds { i64, i64 }, ptr %7, i32 0, i32 1
  %38 = load i64, ptr %37, align 8
  %39 = call { i64, i64 } @JS_GetPropertyStr(ptr noundef %34, i64 %36, i64 %38, ptr noundef @.str.112)
  %40 = getelementptr inbounds { i64, i64 }, ptr %15, i32 0, i32 0
  %41 = extractvalue { i64, i64 } %39, 0
  store i64 %41, ptr %40, align 8
  %42 = getelementptr inbounds { i64, i64 }, ptr %15, i32 0, i32 1
  %43 = extractvalue { i64, i64 } %39, 1
  store i64 %43, ptr %42, align 8
  call void @llvm.memcpy.p0.p0.i64(ptr align 8 %12, ptr align 8 %15, i64 16, i1 false)
  %44 = getelementptr inbounds { i64, i64 }, ptr %12, i32 0, i32 0
  %45 = load i64, ptr %44, align 8
  %46 = getelementptr inbounds { i64, i64 }, ptr %12, i32 0, i32 1
  %47 = load i64, ptr %46, align 8
  %48 = call i32 @JS_IsException(i64 %45, i64 %47)
  %49 = icmp ne i32 %48, 0
  br i1 %49, label %50, label %51

50:                                               ; preds = %33
  br label %96

51:                                               ; preds = %33
  br label %52

52:                                               ; preds = %51, %25
  %53 = load ptr, ptr %8, align 8
  %54 = load i32, ptr @js_worker_class_id, align 4
  %55 = getelementptr inbounds { i64, i64 }, ptr %12, i32 0, i32 0
  %56 = load i64, ptr %55, align 8
  %57 = getelementptr inbounds { i64, i64 }, ptr %12, i32 0, i32 1
  %58 = load i64, ptr %57, align 8
  %59 = call { i64, i64 } @JS_NewObjectProtoClass(ptr noundef %53, i64 %56, i64 %58, i32 noundef %54)
  %60 = getelementptr inbounds { i64, i64 }, ptr %16, i32 0, i32 0
  %61 = extractvalue { i64, i64 } %59, 0
  store i64 %61, ptr %60, align 8
  %62 = getelementptr inbounds { i64, i64 }, ptr %16, i32 0, i32 1
  %63 = extractvalue { i64, i64 } %59, 1
  store i64 %63, ptr %62, align 8
  call void @llvm.memcpy.p0.p0.i64(ptr align 8 %11, ptr align 8 %16, i64 16, i1 false)
  %64 = load ptr, ptr %8, align 8
  %65 = getelementptr inbounds { i64, i64 }, ptr %12, i32 0, i32 0
  %66 = load i64, ptr %65, align 8
  %67 = getelementptr inbounds { i64, i64 }, ptr %12, i32 0, i32 1
  %68 = load i64, ptr %67, align 8
  call void @JS_FreeValue(ptr noundef %64, i64 %66, i64 %68)
  %69 = getelementptr inbounds { i64, i64 }, ptr %11, i32 0, i32 0
  %70 = load i64, ptr %69, align 8
  %71 = getelementptr inbounds { i64, i64 }, ptr %11, i32 0, i32 1
  %72 = load i64, ptr %71, align 8
  %73 = call i32 @JS_IsException(i64 %70, i64 %72)
  %74 = icmp ne i32 %73, 0
  br i1 %74, label %75, label %76

75:                                               ; preds = %52
  br label %96

76:                                               ; preds = %52
  %77 = load ptr, ptr %8, align 8
  %78 = call ptr @js_mallocz(ptr noundef %77, i64 noundef 24)
  store ptr %78, ptr %13, align 8
  %79 = load ptr, ptr %13, align 8
  %80 = icmp ne ptr %79, null
  br i1 %80, label %82, label %81

81:                                               ; preds = %76
  br label %96

82:                                               ; preds = %76
  %83 = load ptr, ptr %9, align 8
  %84 = call ptr @js_dup_message_pipe(ptr noundef %83)
  %85 = load ptr, ptr %13, align 8
  %86 = getelementptr inbounds %struct.JSWorkerData, ptr %85, i32 0, i32 0
  store ptr %84, ptr %86, align 8
  %87 = load ptr, ptr %10, align 8
  %88 = call ptr @js_dup_message_pipe(ptr noundef %87)
  %89 = load ptr, ptr %13, align 8
  %90 = getelementptr inbounds %struct.JSWorkerData, ptr %89, i32 0, i32 1
  store ptr %88, ptr %90, align 8
  %91 = load ptr, ptr %13, align 8
  %92 = getelementptr inbounds { i64, i64 }, ptr %11, i32 0, i32 0
  %93 = load i64, ptr %92, align 8
  %94 = getelementptr inbounds { i64, i64 }, ptr %11, i32 0, i32 1
  %95 = load i64, ptr %94, align 8
  call void @JS_SetOpaque(i64 %93, i64 %95, ptr noundef %91)
  call void @llvm.memcpy.p0.p0.i64(ptr align 8 %6, ptr align 8 %11, i64 16, i1 false)
  br label %104

96:                                               ; preds = %81, %75, %50
  %97 = load ptr, ptr %8, align 8
  %98 = getelementptr inbounds { i64, i64 }, ptr %11, i32 0, i32 0
  %99 = load i64, ptr %98, align 8
  %100 = getelementptr inbounds { i64, i64 }, ptr %11, i32 0, i32 1
  %101 = load i64, ptr %100, align 8
  call void @JS_FreeValue(ptr noundef %97, i64 %99, i64 %101)
  %102 = getelementptr inbounds %struct.JSValue, ptr %6, i32 0, i32 0
  store i32 0, ptr %102, align 8
  %103 = getelementptr inbounds %struct.JSValue, ptr %6, i32 0, i32 1
  store i64 6, ptr %103, align 8
  br label %104

104:                                              ; preds = %96, %82
  %105 = load { i64, i64 }, ptr %6, align 8
  ret { i64, i64 } %105
}