; Function Attrs: nounwind uwtable
define internal fastcc { i64, i64 } @js_worker_ctor_internal(ptr noundef %0, i64 %1, i64 %2, ptr noundef %3, ptr noundef %4) unnamed_addr #0 {
  %6 = and i64 %2, 4294967295
  %.not = icmp eq i64 %6, 3
  br i1 %.not, label %7, label %11

7:                                                ; preds = %5
  %8 = load i32, ptr @js_worker_class_id, align 4
  %9 = tail call { i64, i64 } @JS_GetClassProto(ptr noundef %0, i32 noundef %8) #29
  %10 = extractvalue { i64, i64 } %9, 1
  br label %15

11:                                               ; preds = %5
  %12 = tail call { i64, i64 } @JS_GetPropertyStr(ptr noundef %0, i64 %1, i64 %2, ptr noundef nonnull @.str.112) #29
  %13 = extractvalue { i64, i64 } %12, 1
  %14 = and i64 %13, 4294967295
  %.not40 = icmp eq i64 %14, 6
  br i1 %.not40, label %JS_FreeValue.exit37, label %15

15:                                               ; preds = %11, %7
  %.pn = phi { i64, i64 } [ %9, %7 ], [ %12, %11 ]
  %.sroa.5.0 = phi i64 [ %10, %7 ], [ %13, %11 ]
  %.sroa.08.0 = extractvalue { i64, i64 } %.pn, 0
  %16 = load i32, ptr @js_worker_class_id, align 4
  %17 = tail call { i64, i64 } @JS_NewObjectProtoClass(ptr noundef %0, i64 %.sroa.08.0, i64 %.sroa.5.0, i32 noundef %16) #29
  %18 = extractvalue { i64, i64 } %17, 0
  %19 = extractvalue { i64, i64 } %17, 1
  %20 = trunc i64 %.sroa.5.0 to i32
  %21 = icmp ugt i32 %20, -12
  br i1 %21, label %22, label %JS_FreeValue.exit

22:                                               ; preds = %15
  %23 = inttoptr i64 %.sroa.08.0 to ptr
  %24 = load i32, ptr %23, align 4
  %25 = add i32 %24, -1
  store i32 %25, ptr %23, align 4
  %26 = icmp slt i32 %25, 1
  br i1 %26, label %27, label %JS_FreeValue.exit

27:                                               ; preds = %22
  tail call void @__JS_FreeValue(ptr noundef %0, i64 %.sroa.08.0, i64 %.sroa.5.0) #29
  br label %JS_FreeValue.exit

JS_FreeValue.exit:                                ; preds = %15, %22, %27
  %28 = and i64 %19, 4294967295
  %.not41 = icmp eq i64 %28, 6
  br i1 %.not41, label %35, label %29

29:                                               ; preds = %JS_FreeValue.exit
  %30 = tail call ptr @js_mallocz(ptr noundef %0, i64 noundef 24) #29
  %.not36 = icmp eq ptr %30, null
  br i1 %.not36, label %35, label %31

31:                                               ; preds = %29
  %32 = atomicrmw add ptr %3, i32 1 seq_cst, align 4
  store ptr %3, ptr %30, align 8
  %33 = atomicrmw add ptr %4, i32 1 seq_cst, align 4
  %34 = getelementptr inbounds i8, ptr %30, i64 8
  store ptr %4, ptr %34, align 8
  tail call void @JS_SetOpaque(i64 %18, i64 %19, ptr noundef nonnull %30) #29
  br label %JS_FreeValue.exit37

35:                                               ; preds = %29, %JS_FreeValue.exit
  %36 = trunc i64 %19 to i32
  %37 = icmp ugt i32 %36, -12
  br i1 %37, label %38, label %JS_FreeValue.exit37

38:                                               ; preds = %35
  %39 = inttoptr i64 %18 to ptr
  %40 = load i32, ptr %39, align 4
  %41 = add i32 %40, -1
  store i32 %41, ptr %39, align 4
  %42 = icmp slt i32 %41, 1
  br i1 %42, label %43, label %JS_FreeValue.exit37

43:                                               ; preds = %38
  tail call void @__JS_FreeValue(ptr noundef %0, i64 %18, i64 %19) #29
  br label %JS_FreeValue.exit37

JS_FreeValue.exit37:                              ; preds = %11, %43, %38, %35, %31
  %.sroa.332.sroa.2.0 = phi i64 [ %19, %31 ], [ 6, %35 ], [ 6, %38 ], [ 6, %43 ], [ 6, %11 ]
  %.sroa.031.0.insert.insert = phi i64 [ %18, %31 ], [ 0, %35 ], [ 0, %38 ], [ 0, %43 ], [ 0, %11 ]
  %.fca.0.insert = insertvalue { i64, i64 } poison, i64 %.sroa.031.0.insert.insert, 0
  %.fca.1.insert = insertvalue { i64, i64 } %.fca.0.insert, i64 %.sroa.332.sroa.2.0, 1
  ret { i64, i64 } %.fca.1.insert
}